; Function Attrs: mustprogress nofree norecurse nosync nounwind memory(read, argmem: readwrite, inaccessiblemem: none) uwtable
define hidden noundef zeroext i1 @_ZNK14pdatatype_decl16has_missing_refsER6symbol(ptr nocapture noundef nonnull readonly align 8 dereferenceable(64) %this, ptr nocapture noundef nonnull writeonly align 8 dereferenceable(8) %missing) local_unnamed_addr #8 align 2 {
entry:
  %m_constructors = getelementptr inbounds i8, ptr %this, i64 48
  %0 = load ptr, ptr %m_constructors, align 8
  %cmp.i.i = icmp eq ptr %0, null
  br i1 %cmp.i.i, label %return, label %_ZNK6vectorIP17pconstructor_declLb0EjE3endEv.exit

_ZNK6vectorIP17pconstructor_declLb0EjE3endEv.exit: ; preds = %entry
  %arrayidx.i.i = getelementptr inbounds i8, ptr %0, i64 -4
  %1 = load i32, ptr %arrayidx.i.i, align 4
  %2 = zext i32 %1 to i64
  %add.ptr.i = getelementptr inbounds ptr, ptr %0, i64 %2
  %cmp.not9.not = icmp eq i32 %1, 0
  br i1 %cmp.not9.not, label %return, label %for.body

for.body:                                         ; preds = %_ZNK6vectorIP17pconstructor_declLb0EjE3endEv.exit, %for.inc
  %__begin1.010 = phi ptr [ %incdec.ptr, %for.inc ], [ %0, %_ZNK6vectorIP17pconstructor_declLb0EjE3endEv.exit ]
  %3 = load ptr, ptr %__begin1.010, align 8
  %m_accessors.i = getelementptr inbounds i8, ptr %3, i64 40
  %4 = load ptr, ptr %m_accessors.i, align 8
  %cmp.i.i.i = icmp eq ptr %4, null
  br i1 %cmp.i.i.i, label %for.inc, label %_ZNK6vectorIP14paccessor_declLb0EjE3endEv.exit.i

_ZNK6vectorIP14paccessor_declLb0EjE3endEv.exit.i: ; preds = %for.body
  %arrayidx.i.i.i = getelementptr inbounds i8, ptr %4, i64 -4
  %5 = load i32, ptr %arrayidx.i.i.i, align 4
  %6 = zext i32 %5 to i64
  %add.ptr.i.i = getelementptr inbounds ptr, ptr %4, i64 %6
  %cmp.not6.not.i = icmp eq i32 %5, 0
  br i1 %cmp.not6.not.i, label %for.inc, label %for.body.i

for.cond.i:                                       ; preds = %for.body.i
  %incdec.ptr.i = getelementptr inbounds i8, ptr %__begin1.07.i, i64 8
  %cmp.not.not.i = icmp eq ptr %incdec.ptr.i, %add.ptr.i.i
  br i1 %cmp.not.not.i, label %for.inc, label %for.body.i

for.body.i:                                       ; preds = %_ZNK6vectorIP14paccessor_declLb0EjE3endEv.exit.i, %for.cond.i
  %__begin1.07.i = phi ptr [ %incdec.ptr.i, %for.cond.i ], [ %4, %_ZNK6vectorIP14paccessor_declLb0EjE3endEv.exit.i ]
  %7 = load ptr, ptr %__begin1.07.i, align 8
  %m_type.i.i = getelementptr inbounds i8, ptr %7, i64 32
  %8 = load i32, ptr %m_type.i.i, align 8
  %cmp.i.i4 = icmp eq i32 %8, 2
  br i1 %cmp.i.i4, label %_ZNK17pconstructor_decl16has_missing_refsER6symbol.exit, label %for.cond.i

_ZNK17pconstructor_decl16has_missing_refsER6symbol.exit: ; preds = %for.body.i
  %m_missing_ref.i.i.i = getelementptr inbounds i8, ptr %7, i64 48
  %9 = load i64, ptr %m_missing_ref.i.i.i, align 8
  store i64 %9, ptr %missing, align 8
  br label %return

for.inc:                                          ; preds = %for.cond.i, %_ZNK6vectorIP14paccessor_declLb0EjE3endEv.exit.i, %for.body
  %incdec.ptr = getelementptr inbounds i8, ptr %__begin1.010, i64 8
  %cmp.not.not = icmp eq ptr %incdec.ptr, %add.ptr.i
  br i1 %cmp.not.not, label %return, label %for.body

return:                                           ; preds = %for.inc, %entry, %_ZNK6vectorIP17pconstructor_declLb0EjE3endEv.exit, %_ZNK17pconstructor_decl16has_missing_refsER6symbol.exit
  %cmp.not8 = phi i1 [ true, %_ZNK17pconstructor_decl16has_missing_refsER6symbol.exit ], [ false, %_ZNK6vectorIP17pconstructor_declLb0EjE3endEv.exit ], [ false, %entry ], [ false, %for.inc ]
  ret i1 %cmp.not8
}